target datalayout = "e-m:e-p270:32:32-p271:32:32-p272:64:64-i64:64-i128:128-f80:128-n8:16:32:64-S128"
target triple = "x86_64-pc-linux-gnu"

%struct.DynBuf = type { ptr, i64, i64, i32, ptr, ptr }

; Function Attrs: nounwind uwtable
define dso_local i32 @dbuf_realloc(ptr noundef %0, i64 noundef %1) #0 {
  %3 = alloca i32, align 4
  %4 = alloca ptr, align 8
  %5 = alloca i64, align 8
  %6 = alloca i64, align 8
  %7 = alloca ptr, align 8
  store ptr %0, ptr %4, align 8
  store i64 %1, ptr %5, align 8
  %8 = load i64, ptr %5, align 8
  %9 = load ptr, ptr %4, align 8
  %10 = getelementptr inbounds %struct.DynBuf, ptr %9, i32 0, i32 2
  %11 = load i64, ptr %10, align 8
  %12 = icmp ugt i64 %8, %11
  br i1 %12, label %13, label %54

13:                                               ; preds = %2
  %14 = load ptr, ptr %4, align 8
  %15 = getelementptr inbounds %struct.DynBuf, ptr %14, i32 0, i32 3
  %16 = load i32, ptr %15, align 8
  %17 = icmp ne i32 %16, 0
  br i1 %17, label %18, label %19

18:                                               ; preds = %13
  store i32 -1, ptr %3, align 4
  br label %55

19:                                               ; preds = %13
  %20 = load ptr, ptr %4, align 8
  %21 = getelementptr inbounds %struct.DynBuf, ptr %20, i32 0, i32 2
  %22 = load i64, ptr %21, align 8
  %23 = mul i64 %22, 3
  %24 = udiv i64 %23, 2
  store i64 %24, ptr %6, align 8
  %25 = load i64, ptr %6, align 8
  %26 = load i64, ptr %5, align 8
  %27 = icmp ugt i64 %25, %26
  br i1 %27, label %28, label %30

28:                                               ; preds = %19
  %29 = load i64, ptr %6, align 8
  store i64 %29, ptr %5, align 8
  br label %30

30:                                               ; preds = %28, %19
  %31 = load ptr, ptr %4, align 8
  %32 = getelementptr inbounds %struct.DynBuf, ptr %31, i32 0, i32 4
  %33 = load ptr, ptr %32, align 8
  %34 = load ptr, ptr %4, align 8
  %35 = getelementptr inbounds %struct.DynBuf, ptr %34, i32 0, i32 5
  %36 = load ptr, ptr %35, align 8
  %37 = load ptr, ptr %4, align 8
  %38 = getelementptr inbounds %struct.DynBuf, ptr %37, i32 0, i32 0
  %39 = load ptr, ptr %38, align 8
  %40 = load i64, ptr %5, align 8
  %41 = call ptr %33(ptr noundef %36, ptr noundef %39, i64 noundef %40)
  store ptr %41, ptr %7, align 8
  %42 = load ptr, ptr %7, align 8
  %43 = icmp ne ptr %42, null
  br i1 %43, label %47, label %44

44:                                               ; preds = %30
  %45 = load ptr, ptr %4, align 8
  %46 = getelementptr inbounds %struct.DynBuf, ptr %45, i32 0, i32 3
  store i32 1, ptr %46, align 8
  store i32 -1, ptr %3, align 4
  br label %55

47:                                               ; preds = %30
  %48 = load ptr, ptr %7, align 8
  %49 = load ptr, ptr %4, align 8
  %50 = getelementptr inbounds %struct.DynBuf, ptr %49, i32 0, i32 0
  store ptr %48, ptr %50, align 8
  %51 = load i64, ptr %5, align 8
  %52 = load ptr, ptr %4, align 8
  %53 = getelementptr inbounds %struct.DynBuf, ptr %52, i32 0, i32 2
  store i64 %51, ptr %53, align 8
  br label %54

54:                                               ; preds = %47, %2
  store i32 0, ptr %3, align 4
  br label %55

55:                                               ; preds = %54, %44, %18
  %56 = load i32, ptr %3, align 4
  ret i32 %56
}