; Function Attrs: nounwind uwtable
define dso_local noundef i32 @dbuf_realloc(ptr nocapture noundef %0, i64 noundef %1) local_unnamed_addr #8 {
  %3 = getelementptr inbounds i8, ptr %0, i64 16
  %4 = load i64, ptr %3, align 8
  %5 = icmp ult i64 %4, %1
  br i1 %5, label %6, label %20

6:                                                ; preds = %2
  %7 = getelementptr inbounds i8, ptr %0, i64 24
  %8 = load i32, ptr %7, align 8
  %.not = icmp eq i32 %8, 0
  br i1 %.not, label %9, label %20

9:                                                ; preds = %6
  %10 = mul i64 %4, 3
  %11 = lshr i64 %10, 1
  %spec.select = tail call i64 @llvm.umax.i64(i64 %11, i64 %1)
  %12 = getelementptr inbounds i8, ptr %0, i64 32
  %13 = load ptr, ptr %12, align 8
  %14 = getelementptr inbounds i8, ptr %0, i64 40
  %15 = load ptr, ptr %14, align 8
  %16 = load ptr, ptr %0, align 8
  %17 = tail call ptr %13(ptr noundef %15, ptr noundef %16, i64 noundef %spec.select) #19
  %.not22 = icmp eq ptr %17, null
  br i1 %.not22, label %18, label %19

18:                                               ; preds = %9
  store i32 1, ptr %7, align 8
  br label %20

19:                                               ; preds = %9
  store ptr %17, ptr %0, align 8
  store i64 %spec.select, ptr %3, align 8
  br label %20

20:                                               ; preds = %2, %19, %6, %18
  %.0 = phi i32 [ -1, %18 ], [ -1, %6 ], [ 0, %19 ], [ 0, %2 ]
  ret i32 %.0
}